target datalayout = "e-m:e-p270:32:32-p271:32:32-p272:64:64-i64:64-i128:128-f80:128-n8:16:32:64-S128"
target triple = "x86_64-pc-linux-gnu"

@_ZN38jdk_internal_foreign_abi_ABIDescriptor20_inputStorage_offsetE = hidden global i32 0, align 4
@_ZN38jdk_internal_foreign_abi_ABIDescriptor21_outputStorage_offsetE = hidden global i32 0, align 4
@_ZN38jdk_internal_foreign_abi_ABIDescriptor23_volatileStorage_offsetE = hidden global i32 0, align 4
@_ZN38jdk_internal_foreign_abi_ABIDescriptor22_stackAlignment_offsetE = hidden global i32 0, align 4
@_ZN38jdk_internal_foreign_abi_ABIDescriptor19_shadowSpace_offsetE = hidden global i32 0, align 4
@_ZN38jdk_internal_foreign_abi_ABIDescriptor16_scratch1_offsetE = hidden global i32 0, align 4
@_ZN38jdk_internal_foreign_abi_ABIDescriptor16_scratch2_offsetE = hidden global i32 0, align 4
@.str.106 = private unnamed_addr constant [13 x i8] c"inputStorage\00", align 1
@.str.107 = private unnamed_addr constant [14 x i8] c"outputStorage\00", align 1
@.str.108 = private unnamed_addr constant [16 x i8] c"volatileStorage\00", align 1
@.str.109 = private unnamed_addr constant [15 x i8] c"stackAlignment\00", align 1
@.str.110 = private unnamed_addr constant [12 x i8] c"shadowSpace\00", align 1
@.str.111 = private unnamed_addr constant [9 x i8] c"scratch1\00", align 1
@.str.112 = private unnamed_addr constant [9 x i8] c"scratch2\00", align 1
@_ZN9vmClasses8_klassesE = external global [0 x ptr], align 8
@_ZN6Symbol11_vm_symbolsE = external global [0 x ptr], align 8

; Function Attrs: mustprogress nounwind uwtable
define linkonce_odr hidden noundef ptr @_ZN9vmClasses11check_klassEP13InstanceKlass(ptr noundef %0) #1 comdat align 2 {
  %2 = alloca ptr, align 8
  store ptr %0, ptr %2, align 8
  %3 = load ptr, ptr %2, align 8
  ret ptr %3
}

; Function Attrs: mustprogress nounwind uwtable
define linkonce_odr hidden noundef ptr @_ZN9vmSymbols44jdk_internal_foreign_abi_VMStorage_signatureEv() #1 comdat align 2 {
  %1 = load ptr, ptr getelementptr inbounds ([0 x ptr], ptr @_ZN6Symbol11_vm_symbolsE, i64 0, i64 297), align 8
  ret ptr %1
}

; Function Attrs: mustprogress nounwind uwtable
define linkonce_odr hidden noundef ptr @_ZN9vmSymbols13int_signatureEv() #1 comdat align 2 {
  %1 = load ptr, ptr getelementptr inbounds ([0 x ptr], ptr @_ZN6Symbol11_vm_symbolsE, i64 0, i64 874), align 8
  ret ptr %1
}

; Function Attrs: mustprogress nounwind uwtable
define linkonce_odr hidden noundef ptr @_ZN9vmSymbols56jdk_internal_foreign_abi_VMStorage_array_array_signatureEv() #1 comdat align 2 {
  %1 = load ptr, ptr getelementptr inbounds ([0 x ptr], ptr @_ZN6Symbol11_vm_symbolsE, i64 0, i64 299), align 8
  ret ptr %1
}

; Function Attrs: mustprogress nounwind uwtable
define linkonce_odr hidden noundef ptr @_ZN9vmClasses19ABIDescriptor_klassEv() #1 comdat align 2 {
  %1 = load ptr, ptr getelementptr inbounds ([0 x ptr], ptr @_ZN9vmClasses8_klassesE, i64 0, i64 68), align 8
  %2 = call noundef ptr @_ZN9vmClasses11check_klassEP13InstanceKlass(ptr noundef %1)
  ret ptr %2
}

; Function Attrs: mustprogress nounwind uwtable
define hidden void @_ZN38jdk_internal_foreign_abi_ABIDescriptor15compute_offsetsEv() #1 align 2 {
  %1 = alloca ptr, align 8
  %2 = call noundef ptr @_ZN9vmClasses19ABIDescriptor_klassEv()
  store ptr %2, ptr %1, align 8
  %3 = load ptr, ptr %1, align 8
  %4 = call noundef ptr @_ZN9vmSymbols56jdk_internal_foreign_abi_VMStorage_array_array_signatureEv()
  call void @_ZN11JavaClasses14compute_offsetERiP13InstanceKlassPKcP6Symbolb(ptr noundef nonnull align 4 dereferenceable(4) @_ZN38jdk_internal_foreign_abi_ABIDescriptor20_inputStorage_offsetE, ptr noundef %3, ptr noundef @.str.106, ptr noundef %4, i1 noundef zeroext false)
  %5 = load ptr, ptr %1, align 8
  %6 = call noundef ptr @_ZN9vmSymbols56jdk_internal_foreign_abi_VMStorage_array_array_signatureEv()
  call void @_ZN11JavaClasses14compute_offsetERiP13InstanceKlassPKcP6Symbolb(ptr noundef nonnull align 4 dereferenceable(4) @_ZN38jdk_internal_foreign_abi_ABIDescriptor21_outputStorage_offsetE, ptr noundef %5, ptr noundef @.str.107, ptr noundef %6, i1 noundef zeroext false)
  %7 = load ptr, ptr %1, align 8
  %8 = call noundef ptr @_ZN9vmSymbols56jdk_internal_foreign_abi_VMStorage_array_array_signatureEv()
  call void @_ZN11JavaClasses14compute_offsetERiP13InstanceKlassPKcP6Symbolb(ptr noundef nonnull align 4 dereferenceable(4) @_ZN38jdk_internal_foreign_abi_ABIDescriptor23_volatileStorage_offsetE, ptr noundef %7, ptr noundef @.str.108, ptr noundef %8, i1 noundef zeroext false)
  %9 = load ptr, ptr %1, align 8
  %10 = call noundef ptr @_ZN9vmSymbols13int_signatureEv()
  call void @_ZN11JavaClasses14compute_offsetERiP13InstanceKlassPKcP6Symbolb(ptr noundef nonnull align 4 dereferenceable(4) @_ZN38jdk_internal_foreign_abi_ABIDescriptor22_stackAlignment_offsetE, ptr noundef %9, ptr noundef @.str.109, ptr noundef %10, i1 noundef zeroext false)
  %11 = load ptr, ptr %1, align 8
  %12 = call noundef ptr @_ZN9vmSymbols13int_signatureEv()
  call void @_ZN11JavaClasses14compute_offsetERiP13InstanceKlassPKcP6Symbolb(ptr noundef nonnull align 4 dereferenceable(4) @_ZN38jdk_internal_foreign_abi_ABIDescriptor19_shadowSpace_offsetE, ptr noundef %11, ptr noundef @.str.110, ptr noundef %12, i1 noundef zeroext false)
  %13 = load ptr, ptr %1, align 8
  %14 = call noundef ptr @_ZN9vmSymbols44jdk_internal_foreign_abi_VMStorage_signatureEv()
  call void @_ZN11JavaClasses14compute_offsetERiP13InstanceKlassPKcP6Symbolb(ptr noundef nonnull align 4 dereferenceable(4) @_ZN38jdk_internal_foreign_abi_ABIDescriptor16_scratch1_offsetE, ptr noundef %13, ptr noundef @.str.111, ptr noundef %14, i1 noundef zeroext false)
  %15 = load ptr, ptr %1, align 8
  %16 = call noundef ptr @_ZN9vmSymbols44jdk_internal_foreign_abi_VMStorage_signatureEv()
  call void @_ZN11JavaClasses14compute_offsetERiP13InstanceKlassPKcP6Symbolb(ptr noundef nonnull align 4 dereferenceable(4) @_ZN38jdk_internal_foreign_abi_ABIDescriptor16_scratch2_offsetE, ptr noundef %15, ptr noundef @.str.112, ptr noundef %16, i1 noundef zeroext false)
  ret void
}