; Function Attrs: mustprogress nounwind uwtable
define hidden void @_ZN38jdk_internal_foreign_abi_ABIDescriptor15compute_offsetsEv() local_unnamed_addr #0 align 2 {
  %1 = load ptr, ptr getelementptr inbounds (i8, ptr @_ZN9vmClasses8_klassesE, i64 544), align 8
  %2 = load ptr, ptr getelementptr inbounds (i8, ptr @_ZN6Symbol11_vm_symbolsE, i64 2392), align 8
  tail call void @_ZN11JavaClasses14compute_offsetERiP13InstanceKlassPKcP6Symbolb(ptr noundef nonnull align 4 dereferenceable(4) @_ZN38jdk_internal_foreign_abi_ABIDescriptor20_inputStorage_offsetE, ptr noundef %1, ptr noundef nonnull @.str.106, ptr noundef %2, i1 noundef zeroext false)
  %3 = load ptr, ptr getelementptr inbounds (i8, ptr @_ZN6Symbol11_vm_symbolsE, i64 2392), align 8
  tail call void @_ZN11JavaClasses14compute_offsetERiP13InstanceKlassPKcP6Symbolb(ptr noundef nonnull align 4 dereferenceable(4) @_ZN38jdk_internal_foreign_abi_ABIDescriptor21_outputStorage_offsetE, ptr noundef %1, ptr noundef nonnull @.str.107, ptr noundef %3, i1 noundef zeroext false)
  %4 = load ptr, ptr getelementptr inbounds (i8, ptr @_ZN6Symbol11_vm_symbolsE, i64 2392), align 8
  tail call void @_ZN11JavaClasses14compute_offsetERiP13InstanceKlassPKcP6Symbolb(ptr noundef nonnull align 4 dereferenceable(4) @_ZN38jdk_internal_foreign_abi_ABIDescriptor23_volatileStorage_offsetE, ptr noundef %1, ptr noundef nonnull @.str.108, ptr noundef %4, i1 noundef zeroext false)
  %5 = load ptr, ptr getelementptr inbounds (i8, ptr @_ZN6Symbol11_vm_symbolsE, i64 6992), align 8
  tail call void @_ZN11JavaClasses14compute_offsetERiP13InstanceKlassPKcP6Symbolb(ptr noundef nonnull align 4 dereferenceable(4) @_ZN38jdk_internal_foreign_abi_ABIDescriptor22_stackAlignment_offsetE, ptr noundef %1, ptr noundef nonnull @.str.109, ptr noundef %5, i1 noundef zeroext false)
  %6 = load ptr, ptr getelementptr inbounds (i8, ptr @_ZN6Symbol11_vm_symbolsE, i64 6992), align 8
  tail call void @_ZN11JavaClasses14compute_offsetERiP13InstanceKlassPKcP6Symbolb(ptr noundef nonnull align 4 dereferenceable(4) @_ZN38jdk_internal_foreign_abi_ABIDescriptor19_shadowSpace_offsetE, ptr noundef %1, ptr noundef nonnull @.str.110, ptr noundef %6, i1 noundef zeroext false)
  %7 = load ptr, ptr getelementptr inbounds (i8, ptr @_ZN6Symbol11_vm_symbolsE, i64 2376), align 8
  tail call void @_ZN11JavaClasses14compute_offsetERiP13InstanceKlassPKcP6Symbolb(ptr noundef nonnull align 4 dereferenceable(4) @_ZN38jdk_internal_foreign_abi_ABIDescriptor16_scratch1_offsetE, ptr noundef %1, ptr noundef nonnull @.str.111, ptr noundef %7, i1 noundef zeroext false)
  %8 = load ptr, ptr getelementptr inbounds (i8, ptr @_ZN6Symbol11_vm_symbolsE, i64 2376), align 8
  tail call void @_ZN11JavaClasses14compute_offsetERiP13InstanceKlassPKcP6Symbolb(ptr noundef nonnull align 4 dereferenceable(4) @_ZN38jdk_internal_foreign_abi_ABIDescriptor16_scratch2_offsetE, ptr noundef %1, ptr noundef nonnull @.str.112, ptr noundef %8, i1 noundef zeroext false)
  ret void
}